; Function Attrs: mustprogress nounwind uwtable
define void @_ZN2cv6detail11MatchesInfoC2Ev(ptr noundef nonnull align 8 dereferenceable(168) initializes((0, 60)) %0) unnamed_addr #7 align 2 {
  store i32 -1, ptr %0, align 8, !tbaa !46
  %2 = getelementptr inbounds nuw i8, ptr %0, i64 4
  store i32 -1, ptr %2, align 4, !tbaa !65
  %3 = getelementptr inbounds nuw i8, ptr %0, i64 8
  %4 = getelementptr inbounds nuw i8, ptr %0, i64 64
  tail call void @llvm.memset.p0.i64(ptr noundef nonnull align 8 dereferenceable(52) %3, i8 0, i64 52, i1 false)
  tail call void @_ZN2cv3MatC1Ev(ptr noundef nonnull align 8 dereferenceable(96) %4) #26
  %5 = getelementptr inbounds nuw i8, ptr %0, i64 160
  store double 0.000000e+00, ptr %5, align 8, !tbaa !66
  ret void
}